(lp0
(i__main__
NeuralNet
p1
(dp2
S'nodeCount'
p3
(lp4
I24
aI13
aI8
aI13
aI4
asS'weights'
p5
(lp6
(lp7
(lp8
F0.4615550018726913
aF0.7781132322241624
aF-0.925350596839795
aF-0.20562052161526156
aF-0.5468184984696418
aF-0.7803186282392227
aF-0.6786466187084581
aF0.7107202574804927
aF-0.8949392447047333
aF0.048478695746966505
aF-0.8032537463369565
aF0.08554284715982052
aF0.7732285409428687
aa(lp9
F0.15864547622139935
aF0.974653311945417
aF0.4021045677905297
aF0.07137864085357148
aF-0.22008777785284783
aF-0.8401173836480218
aF-0.41358526037413434
aF0.3421580820313732
aF0.6061265892861492
aF-0.564551413802618
aF-0.7186279347295275
aF-0.9525904513556538
aF-0.7378687720853176
aa(lp10
F-0.4904135669119456
aF0.7356824747325554
aF0.980831492264608
aF-0.5854354116301774
aF-0.6758443195960744
aF0.6855107442577806
aF0.1933262830746676
aF0.760963648918465
aF-0.7993549103556559
aF0.6103339076208296
aF-0.43874011181996075
aF-0.20050032574449594
aF0.49781560282304116
aa(lp11
F-0.45144879395892223
aF0.8989007221289105
aF0.34326120545580197
aF-0.7270019752109531
aF0.43411514916306815
aF0.16305658654251354
aF-0.2350473386963452
aF0.6678277602552329
aF-0.6852136387245791
aF-0.09427866048504208
aF-0.6772304862556033
aF0.38270897917925595
aF-0.9988144547549402
aa(lp12
F-0.21516346369931827
aF0.06862943066025484
aF0.30541705011149367
aF0.45138301964042427
aF-0.45881637815199117
aF0.2583799045791286
aF0.6991415066477167
aF0.8858769334967054
aF0.6933592070748207
aF0.5287475303377389
aF0.618075343509225
aF0.8615103686362737
aF-0.7038568952492832
aa(lp13
F-0.4374849905623619
aF-0.776256510006136
aF-0.9380337473390716
aF0.8114920294010377
aF0.4408893481646108
aF-0.7795161910243256
aF-0.4609546527140622
aF0.3948893513550842
aF-0.3570462909798475
aF-0.11403974835041897
aF0.658628162778037
aF0.6010385314827917
aF-0.28437546688465876
aa(lp14
F-0.4308769440701594
aF0.14791519950440568
aF0.7238244769934679
aF0.4042055948532304
aF0.7211596536827982
aF0.5041792218427497
aF-0.9441601147422845
aF-0.7190952569809397
aF0.4008362002147663
aF0.34634665209032334
aF0.7011328054030694
aF-0.6400342619954993
aF-0.48449710014787706
aa(lp15
F0.6550387358077574
aF-0.26695954787241627
aF-0.14426372790930442
aF0.5843445293909673
aF-0.7726520777650021
aF0.5005418579941303
aF-0.020932814000896638
aF0.7535359540275803
aF-0.8102734320962273
aF-0.5825095376688352
aF-0.44199208927358136
aF0.027319438949583885
aF-0.14310908310228587
aa(lp16
F0.39988914384206775
aF-0.9936084207998608
aF0.08549951577262971
aF-0.15537789823300185
aF-0.8989584203568683
aF0.5144795191753639
aF0.7339007278171144
aF0.414148079980726
aF0.45208266601647273
aF-0.4432200068526655
aF-0.874677012251236
aF0.8377985035235942
aF0.44843487572065266
aa(lp17
F-0.26777474724398687
aF0.7637025499732499
aF0.6885575044091343
aF0.06831190195854431
aF0.6106548239907919
aF0.3735912459998636
aF0.008806052181757673
aF0.33790850209756873
aF-0.1982455408177466
aF-0.254346429688451
aF0.7891146702762626
aF0.9945181839109205
aF0.9173231015194985
aa(lp18
F0.5833663507045244
aF0.5606422198734164
aF0.3450988534010755
aF-0.8609481028443124
aF0.3131277884135295
aF0.6403084171417697
aF0.07786624215651128
aF-0.18902388503426204
aF-0.858774538702314
aF0.7730138922174175
aF0.5463069854948766
aF0.6505762279318814
aF-0.9371263736025279
aa(lp19
F-0.6179914466545742
aF-0.5702340282929967
aF-0.6263987158115463
aF-0.5491259042518106
aF-0.4640640544929231
aF0.11168735423337028
aF0.14695285940094016
aF-0.9446942545429213
aF0.2228132193356276
aF0.4383054900591514
aF0.3637852090971594
aF-0.4538067192786537
aF-0.6930289017734499
aa(lp20
F0.9272194629695316
aF0.7473378271553315
aF-0.9750544627219435
aF-0.8287625366041398
aF-0.6088711245251341
aF0.9962714091332567
aF-0.6019590830605892
aF0.3988484221305113
aF-0.17892266991566008
aF-0.6088027759008321
aF0.08251756613557992
aF0.07681102672999018
aF0.048218456859765224
aa(lp21
F-0.8619297195007627
aF0.5463262261219735
aF-0.1988301365793348
aF-0.23881798414797317
aF0.13198097581965929
aF0.8916284703992847
aF-0.2600022108793001
aF-0.3993728874990037
aF0.23164455885695112
aF-0.8488301772396702
aF-0.819808740267278
aF0.017149251791797937
aF-0.10542725048483947
aa(lp22
F0.44011203499409435
aF0.25208140719240824
aF-0.9923109023172065
aF-0.6446200196663026
aF-0.34650026451343696
aF0.26955238055618835
aF-0.7881452313783919
aF0.8721296008596344
aF0.944331440797318
aF0.6700483852826928
aF0.7574623353858982
aF-0.9958057624242227
aF0.525521024965873
aa(lp23
F0.10531119829774815
aF-0.6083369100493035
aF-0.18830857660062628
aF0.8256205139986166
aF0.6591511444179385
aF-0.03233492415416239
aF-0.9551829850650062
aF0.3152743313697486
aF0.48335728059306926
aF0.9848907801008346
aF0.16506296258750708
aF-0.5797990398185726
aF-0.05821289368743754
aa(lp24
F-0.6559917899514458
aF-0.3103543415725585
aF-0.9622552152299957
aF-0.6560165973971117
aF-0.025855802565505792
aF0.9206169390806567
aF0.12612386058698233
aF0.8594561502764821
aF-0.5171625692439676
aF-0.19045911478167343
aF0.9183071318344063
aF-0.2338741131363573
aF-0.2473500191037532
aa(lp25
F0.9779804466270776
aF-0.5615426243644297
aF-0.7250237268488267
aF0.18965459468500523
aF-0.2217695735695575
aF0.5187632010915999
aF0.3612867238018025
aF0.7766730439476606
aF-0.02309639077700565
aF-0.460809531096686
aF0.10104999228874068
aF-0.40930545056492584
aF-0.04500831312408704
aa(lp26
F0.026078258634925966
aF-0.15488605362042063
aF-0.6457373914005244
aF0.44815972868371157
aF0.11028063709493985
aF-0.7776388803402547
aF-0.8866416503463781
aF-0.2664731802783449
aF-0.7262061357111329
aF-0.19577171929674542
aF0.49763545031008594
aF-0.5751965007676276
aF-0.05507130837788199
aa(lp27
F-0.6823718210320204
aF-0.8949155523453185
aF-0.5269474096884201
aF0.9362661825028811
aF-0.15256904769605995
aF0.39061435715011794
aF0.3812875138697518
aF0.4603622682819182
aF-0.4799925293889369
aF-0.5831922290312301
aF0.8751058943081071
aF0.305725127057501
aF0.12962727011593178
aa(lp28
F0.17676246953192476
aF0.20401085037549138
aF-0.8849427123154621
aF0.982857646814228
aF-0.701349888949967
aF0.40313840179865035
aF0.38901483220329647
aF-0.865905854570056
aF0.7003654420294201
aF-0.4950870495785964
aF-0.8482749714296147
aF0.7211119365586343
aF-0.3338369292233121
aa(lp29
F0.7340458591172927
aF0.6913068485402649
aF0.5687808863791635
aF-0.3392718787903042
aF0.19865382903666906
aF0.14268747316929686
aF-0.46015043479286377
aF-0.4022797942157246
aF-0.5856632328232587
aF-0.17387607426616425
aF-0.8999603443722388
aF-0.5378864090660969
aF-0.49572707022217166
aa(lp30
F-0.8177165411415244
aF-0.8838527223196677
aF-0.40387081763092936
aF-0.9646515210103968
aF0.0057287515084840646
aF0.9346998531224513
aF-0.27991722764007876
aF-0.6333991143584354
aF-0.23944712686836023
aF0.5512962700228816
aF-0.7091380066688446
aF-0.2319945865947015
aF0.9311711431576737
aa(lp31
F0.7762478807652373
aF-0.7257507574495388
aF0.6997090787725124
aF0.20889318103327859
aF0.46474499721032125
aF-0.3599555249293085
aF-0.9717268859200587
aF0.03154888309830084
aF-0.5627599920901283
aF-0.22523517523475345
aF-0.9600662452752229
aF0.3353677388267833
aF-0.06634699429930602
aaa(lp32
(lp33
F0.5391517810150812
aF0.24348264281949517
aF-0.17948668672213364
aF0.6517817919361186
aF-0.10558953012117533
aF0.687200140578913
aF0.8778582245979047
aF0.044187101296707
aa(lp34
F-0.08541098976267092
aF-0.5037933673168697
aF0.17723938007048878
aF0.4873661923357553
aF-0.985139021228014
aF-0.7499752325546798
aF-0.9912248609249903
aF-0.3516320842849283
aa(lp35
F-0.6248030972278997
aF-0.520772455905909
aF-0.6025302175129754
aF0.5274141693916712
aF-0.08539039810698457
aF-0.14524781320035207
aF0.7654103896352815
aF-0.7528420452343676
aa(lp36
F-0.3961105696013201
aF-0.9865284960523759
aF0.319023900684988
aF-0.5176243015208095
aF-0.9467212152853606
aF-0.49256304580315136
aF-0.3931263508397611
aF0.11073792253929415
aa(lp37
F0.6252028471524376
aF0.22840259245159
aF0.3192065124077008
aF-0.4113708770715818
aF-0.4871642106381078
aF0.9894206591821082
aF0.6123405700959248
aF-0.6431845417585722
aa(lp38
F-0.5809731626030266
aF0.8845017177679528
aF0.5114930538984079
aF0.36791961415163077
aF-0.1639572432332974
aF0.691776138435781
aF0.6583969550820765
aF-0.8557961098026443
aa(lp39
F-0.5138132799685204
aF-0.5258646942928826
aF0.9418220992687283
aF-0.9045769053090764
aF0.19774632620458665
aF-0.6428228050578642
aF-0.7042503568202738
aF0.9349699048132412
aa(lp40
F-0.3273983396194595
aF-0.9148134556679033
aF-0.1034884134098355
aF0.7609779469172833
aF-0.24037016685295254
aF-0.8303532785987027
aF0.13732894904744297
aF-0.1770487310040212
aa(lp41
F-0.01304809573549881
aF-0.6810512715048451
aF-0.9950628765569187
aF0.6047675650164499
aF-0.7754392951802578
aF0.015403665258605814
aF0.8045116126066232
aF0.639044915879541
aa(lp42
F-0.9805890822491632
aF-0.4789387376118224
aF-0.995339542773479
aF0.28468115360952173
aF0.6166556793710403
aF0.7820173449497301
aF0.1488602890234927
aF0.09688205305469633
aa(lp43
F-0.15360373652427883
aF0.10616468502497489
aF0.6000519363248464
aF-0.3091545717267381
aF0.8428362953285424
aF-0.5090931525248517
aF-0.9803566375049635
aF-0.670106011452754
aa(lp44
F-0.6432993835732888
aF-0.5664544817751056
aF0.8045893686629169
aF-0.917372111196836
aF-0.5241879327134655
aF0.38846307811107383
aF0.2527349615997596
aF0.6792961622190683
aa(lp45
F0.5928569821404319
aF-0.24127769960360412
aF-0.30320432797394115
aF-0.5792592072563705
aF0.8448487527930086
aF-0.06179236587704051
aF0.4675620723780711
aF0.3663884359082952
aaa(lp46
(lp47
F0.10994280535133649
aF0.5078504333844303
aF0.8936309731025778
aF0.060940769394108196
aF-0.8782753597165371
aF-0.42007511770713246
aF0.8905828519168282
aF-0.2412743605311911
aF-0.8328527931406884
aF0.13849880260173908
aF-0.4511124642868325
aF0.055139934516692746
aF-0.45489627815601485
aa(lp48
F-0.8730724277978015
aF0.25687594627233756
aF0.25534404522737986
aF0.6329785152703638
aF-0.34879856860438885
aF0.22903192516545956
aF0.03539590056493269
aF-0.7060089724194052
aF0.4809041154975182
aF-0.3740197606663338
aF0.2939252485675776
aF0.26319390471794435
aF0.7841875698877188
aa(lp49
F-0.5692116829963334
aF0.8724363925820395
aF-0.5330301935941033
aF-0.09483156115247504
aF-0.6456858347106067
aF0.037508811562674715
aF0.39453912881839903
aF0.7637321152623777
aF-0.5292519400795241
aF-0.9308341258368991
aF-0.20357368832354328
aF-0.4841383055018673
aF0.18512140595868876
aa(lp50
F-0.9691465374236532
aF0.04967973217169086
aF0.8572927072271865
aF-0.22919459251474694
aF-0.3766131286731347
aF-0.2810027348858457
aF-0.4021754248460252
aF0.2818505705122929
aF0.4050699953647303
aF0.7916473244851248
aF-0.4768755363851176
aF-0.46759779500457266
aF0.8582587498812917
aa(lp51
F-0.8995621052126537
aF-0.8236123113655838
aF-0.5624786747391723
aF0.81164087871336
aF-0.9539831003117751
aF0.4707759232670119
aF0.04621420647013608
aF0.8974698326893094
aF0.11134210094430741
aF-0.2452068096359814
aF0.6625002571609191
aF0.32927100210785465
aF0.16845294346114503
aa(lp52
F0.47342235686106937
aF0.8296760050245493
aF0.7285196577302315
aF-0.665257207943956
aF0.667462539517311
aF0.40728477333695356
aF0.6372189282420107
aF-0.8161517248936834
aF-0.21338783915260917
aF-0.21625900927533115
aF0.6186839134100852
aF-0.37183758115135057
aF0.7730167837889079
aa(lp53
F0.10802993683182338
aF-0.5187097922787252
aF-0.6637931312695835
aF-0.025189797386344415
aF0.1407836360507504
aF-0.08471080250642316
aF-0.9902112258186355
aF-0.7346418601254681
aF0.01842759462638588
aF-0.7880042759649213
aF-0.09862532554230818
aF0.2514925595752191
aF-0.8877867472152303
aa(lp54
F-0.9124849877065493
aF-0.2598375003053033
aF0.8764354222334421
aF-0.7934292076813259
aF0.5162456103382731
aF-0.32480388835074225
aF-0.4501563514785427
aF-0.47711729198105024
aF0.34455610147947535
aF0.6841185567556713
aF-0.8760792482028488
aF-0.9537623600814531
aF-0.6508619977786434
aaa(lp55
(lp56
F0.47351573365880784
aF-0.5127510832619047
aF-0.822624469742995
aF0.03427776516280412
aa(lp57
F-0.48258651372609496
aF-0.11719654808476854
aF0.6863318077009586
aF-0.246278768053791
aa(lp58
F0.5781062615147166
aF-0.8386911675172857
aF-0.8899153164229274
aF0.28948717819698433
aa(lp59
F0.024357270098469774
aF-0.2746405646167456
aF-0.6895249036436881
aF-0.22973737725118193
aa(lp60
F0.6671577076507251
aF0.34600454049070906
aF0.691244767952679
aF-0.27279908453712465
aa(lp61
F0.8099587007257694
aF-0.37819283660969916
aF-0.436488762465415
aF0.6932559317348528
aa(lp62
F-0.3350296949370053
aF0.5427116639419007
aF-0.6474924563061994
aF0.19628310858995723
aa(lp63
F0.22824964433036832
aF0.6320304982757581
aF-0.7655455985076818
aF0.5607651327765824
aa(lp64
F0.340830936374408
aF-0.8523477670709181
aF-0.5485524428588675
aF-0.8084818708865988
aa(lp65
F0.6848557865590603
aF0.3929883726401495
aF0.8461969852794635
aF0.9113759782561361
aa(lp66
F0.41915347087342947
aF-0.2365114695424695
aF-0.28777098297977677
aF-0.3317925722493664
aa(lp67
F-0.330491227897167
aF-0.5570691682237476
aF-0.5753396581556931
aF-0.29092339630318476
aa(lp68
F0.47817019914811687
aF0.774733961978519
aF0.23426910895138597
aF-0.7313311189058165
aaasS'biases'
p69
(lp70
(lp71
F-0.1516162772870142
aF0.3117784728331854
aF-0.8672188422394753
aF0.22800042569868717
aF0.9930878919616419
aF0.8572293323755669
aF0.6714351534608469
aF-0.6765155222786761
aF0.42716354678130286
aF0.41469388178516486
aF-0.6965249144987564
aF0.5930930105407548
aF0.9095635501941877
aa(lp72
F-0.7819231778153886
aF0.7827379163019905
aF-0.7422480512571423
aF0.5464068848571593
aF0.6766351650873765
aF-0.20592196481783964
aF0.9161921584522077
aF0.08419974771245053
aa(lp73
F-0.7078264354834349
aF0.9306286454889341
aF0.8773048020160459
aF0.8521281950185009
aF-0.15665483159723315
aF-0.9994997788407189
aF0.8514826719186217
aF-0.8437223903361806
aF-0.21340319365327032
aF-0.2741701703555415
aF-0.09604605915163122
aF-0.3248717254957918
aF-0.6122663963150239
aa(lp74
F0.2525477625568415
aF-0.320430517635667
aF-0.12504455463582587
aF-0.4499216907518446
aasS'fitness'
p75
cnumpy.core.multiarray
scalar
p76
(cnumpy
dtype
p77
(S'f8'
p78
I0
I1
tp79
Rp80
(I3
S'<'
p81
NNNI-1
I-1
I0
tp82
bS'\xbf\xb9\xe4\xa2\xd2\xdcS\xc0'
p83
tp84
Rp85
sba(i__main__
NeuralNet
p86
(dp87
g3
(lp88
I24
aI13
aI8
aI13
aI4
asg5
(lp89
(lp90
(lp91
F0.4615550018726913
aF0.7781132322241624
aF-0.925350596839795
aF-0.20562052161526156
aF-0.5468184984696418
aF-0.7803186282392227
aF-0.6786466187084581
aF0.7107202574804927
aF-0.8949392447047333
aF0.048478695746966505
aF-0.8032537463369565
aF0.08554284715982052
aF0.7732285409428687
aa(lp92
F0.15864547622139935
aF0.974653311945417
aF0.4021045677905297
aF0.07137864085357148
aF-0.22008777785284783
aF-0.8401173836480218
aF-0.41358526037413434
aF0.3421580820313732
aF0.6061265892861492
aF-0.564551413802618
aF-0.7186279347295275
aF-0.9525904513556538
aF-0.7378687720853176
aa(lp93
F-0.4904135669119456
aF0.7356824747325554
aF0.980831492264608
aF-0.5854354116301774
aF-0.6758443195960744
aF0.6855107442577806
aF0.1933262830746676
aF0.760963648918465
aF-0.7993549103556559
aF0.6103339076208296
aF-0.43874011181996075
aF-0.20050032574449594
aF0.49781560282304116
aa(lp94
F-0.45144879395892223
aF0.8989007221289105
aF0.34326120545580197
aF-0.7270019752109531
aF0.43411514916306815
aF0.16305658654251354
aF-0.2350473386963452
aF0.6678277602552329
aF-0.6852136387245791
aF-0.09427866048504208
aF-0.6772304862556033
aF0.38270897917925595
aF-0.9988144547549402
aa(lp95
F-0.21516346369931827
aF0.06862943066025484
aF0.30541705011149367
aF0.45138301964042427
aF-0.45881637815199117
aF0.2583799045791286
aF0.6991415066477167
aF0.8858769334967054
aF0.6933592070748207
aF0.5287475303377389
aF0.618075343509225
aF0.8615103686362737
aF-0.7038568952492832
aa(lp96
F-0.4374849905623619
aF-0.776256510006136
aF-0.9380337473390716
aF0.8114920294010377
aF0.4408893481646108
aF-0.7795161910243256
aF-0.4609546527140622
aF0.3948893513550842
aF-0.3570462909798475
aF-0.11403974835041897
aF0.658628162778037
aF0.6010385314827917
aF-0.28437546688465876
aa(lp97
F-0.4308769440701594
aF0.14791519950440568
aF0.7238244769934679
aF0.4042055948532304
aF0.7211596536827982
aF0.5041792218427497
aF-0.9441601147422845
aF-0.7190952569809397
aF0.4008362002147663
aF0.34634665209032334
aF0.7011328054030694
aF-0.6400342619954993
aF-0.48449710014787706
aa(lp98
F0.6550387358077574
aF-0.26695954787241627
aF-0.14426372790930442
aF0.5843445293909673
aF-0.7726520777650021
aF0.5005418579941303
aF-0.020932814000896638
aF0.7535359540275803
aF-0.8102734320962273
aF-0.5825095376688352
aF-0.44199208927358136
aF0.027319438949583885
aF-0.14310908310228587
aa(lp99
F0.39988914384206775
aF-0.9936084207998608
aF0.08549951577262971
aF-0.15537789823300185
aF-0.8989584203568683
aF0.5144795191753639
aF0.7339007278171144
aF0.414148079980726
aF0.45208266601647273
aF-0.4432200068526655
aF-0.874677012251236
aF0.8377985035235942
aF0.44843487572065266
aa(lp100
F-0.26777474724398687
aF0.7637025499732499
aF0.6885575044091343
aF0.06831190195854431
aF0.6106548239907919
aF0.3735912459998636
aF0.008806052181757673
aF0.33790850209756873
aF-0.1982455408177466
aF-0.254346429688451
aF0.7891146702762626
aF0.9945181839109205
aF0.9173231015194985
aa(lp101
F0.5833663507045244
aF0.5606422198734164
aF0.3450988534010755
aF-0.8609481028443124
aF0.3131277884135295
aF0.6403084171417697
aF0.07786624215651128
aF-0.18902388503426204
aF-0.858774538702314
aF0.7730138922174175
aF0.5463069854948766
aF0.6505762279318814
aF-0.9371263736025279
aa(lp102
F-0.6179914466545742
aF-0.5702340282929967
aF-0.6263987158115463
aF-0.5491259042518106
aF-0.4640640544929231
aF0.11168735423337028
aF0.14695285940094016
aF-0.9446942545429213
aF0.2228132193356276
aF0.4383054900591514
aF0.3637852090971594
aF-0.4538067192786537
aF-0.6930289017734499
aa(lp103
F0.9272194629695316
aF0.7473378271553315
aF-0.9750544627219435
aF-0.8287625366041398
aF-0.6088711245251341
aF0.9962714091332567
aF-0.6019590830605892
aF0.3988484221305113
aF-0.17892266991566008
aF-0.6088027759008321
aF0.08251756613557992
aF0.07681102672999018
aF0.048218456859765224
aa(lp104
F-0.8619297195007627
aF0.5463262261219735
aF-0.1988301365793348
aF-0.23881798414797317
aF0.13198097581965929
aF0.8916284703992847
aF-0.2600022108793001
aF-0.3993728874990037
aF0.23164455885695112
aF-0.8488301772396702
aF-0.819808740267278
aF0.017149251791797937
aF-0.10542725048483947
aa(lp105
F0.44011203499409435
aF0.25208140719240824
aF-0.9923109023172065
aF-0.6446200196663026
aF-0.34650026451343696
aF0.26955238055618835
aF-0.7881452313783919
aF0.8721296008596344
aF0.944331440797318
aF0.6700483852826928
aF0.7574623353858982
aF-0.9958057624242227
aF0.525521024965873
aa(lp106
F0.10531119829774815
aF-0.6083369100493035
aF-0.18830857660062628
aF0.8256205139986166
aF0.6591511444179385
aF-0.03233492415416239
aF-0.9551829850650062
aF0.3152743313697486
aF0.48335728059306926
aF0.9848907801008346
aF0.16506296258750708
aF-0.5797990398185726
aF-0.05821289368743754
aa(lp107
F-0.6559917899514458
aF-0.3103543415725585
aF-0.9622552152299957
aF-0.6560165973971117
aF-0.025855802565505792
aF0.9206169390806567
aF0.12612386058698233
aF0.8594561502764821
aF-0.5171625692439676
aF-0.19045911478167343
aF0.9183071318344063
aF-0.2338741131363573
aF-0.2473500191037532
aa(lp108
F0.9779804466270776
aF-0.5615426243644297
aF-0.7250237268488267
aF0.18965459468500523
aF-0.2217695735695575
aF0.5187632010915999
aF0.3612867238018025
aF0.7766730439476606
aF-0.02309639077700565
aF-0.460809531096686
aF0.10104999228874068
aF-0.40930545056492584
aF-0.04500831312408704
aa(lp109
F0.026078258634925966
aF-0.15488605362042063
aF-0.6457373914005244
aF0.44815972868371157
aF0.11028063709493985
aF-0.7776388803402547
aF-0.8866416503463781
aF-0.2664731802783449
aF-0.7262061357111329
aF-0.19577171929674542
aF0.49763545031008594
aF-0.5751965007676276
aF-0.05507130837788199
aa(lp110
F-0.6823718210320204
aF-0.8949155523453185
aF-0.5269474096884201
aF0.9362661825028811
aF-0.15256904769605995
aF0.39061435715011794
aF0.3812875138697518
aF0.4603622682819182
aF-0.4799925293889369
aF-0.5831922290312301
aF0.8751058943081071
aF0.305725127057501
aF0.12962727011593178
aa(lp111
F0.17676246953192476
aF0.20401085037549138
aF-0.8849427123154621
aF0.982857646814228
aF-0.701349888949967
aF0.40313840179865035
aF0.38901483220329647
aF-0.865905854570056
aF0.7003654420294201
aF-0.4950870495785964
aF-0.8482749714296147
aF0.7211119365586343
aF-0.3338369292233121
aa(lp112
F0.7340458591172927
aF0.6913068485402649
aF0.5687808863791635
aF-0.3392718787903042
aF0.19865382903666906
aF0.14268747316929686
aF-0.46015043479286377
aF-0.4022797942157246
aF-0.5856632328232587
aF-0.17387607426616425
aF-0.8999603443722388
aF-0.5378864090660969
aF-0.49572707022217166
aa(lp113
F-0.8177165411415244
aF-0.8838527223196677
aF-0.40387081763092936
aF-0.9646515210103968
aF0.0057287515084840646
aF0.9346998531224513
aF-0.27991722764007876
aF-0.6333991143584354
aF-0.23944712686836023
aF0.5512962700228816
aF-0.7091380066688446
aF-0.2319945865947015
aF0.9311711431576737
aa(lp114
F0.7762478807652373
aF-0.7257507574495388
aF0.6997090787725124
aF0.20889318103327859
aF0.46474499721032125
aF-0.3599555249293085
aF-0.9717268859200587
aF0.03154888309830084
aF-0.5627599920901283
aF-0.22523517523475345
aF-0.9600662452752229
aF0.3353677388267833
aF-0.06634699429930602
aaa(lp115
(lp116
F0.5391517810150812
aF0.24348264281949517
aF-0.17948668672213364
aF0.6517817919361186
aF-0.10558953012117533
aF0.687200140578913
aF0.8778582245979047
aF0.044187101296707
aa(lp117
F-0.08541098976267092
aF-0.5037933673168697
aF0.17723938007048878
aF0.4873661923357553
aF-0.985139021228014
aF-0.7499752325546798
aF-0.9912248609249903
aF-0.3516320842849283
aa(lp118
F-0.6248030972278997
aF-0.520772455905909
aF-0.6025302175129754
aF0.5274141693916712
aF-0.08539039810698457
aF-0.14524781320035207
aF0.7654103896352815
aF-0.7528420452343676
aa(lp119
F-0.3961105696013201
aF-0.9865284960523759
aF0.319023900684988
aF-0.5176243015208095
aF-0.9467212152853606
aF-0.49256304580315136
aF-0.3931263508397611
aF0.11073792253929415
aa(lp120
F0.6252028471524376
aF0.22840259245159
aF0.3192065124077008
aF-0.4113708770715818
aF-0.4871642106381078
aF0.9894206591821082
aF0.6123405700959248
aF-0.6431845417585722
aa(lp121
F-0.5809731626030266
aF0.8845017177679528
aF0.5114930538984079
aF0.36791961415163077
aF-0.1639572432332974
aF0.691776138435781
aF0.6583969550820765
aF-0.8557961098026443
aa(lp122
F-0.5138132799685204
aF-0.5258646942928826
aF0.9418220992687283
aF-0.9045769053090764
aF0.19774632620458665
aF-0.6428228050578642
aF-0.7042503568202738
aF0.9349699048132412
aa(lp123
F-0.3273983396194595
aF-0.9148134556679033
aF-0.1034884134098355
aF0.7609779469172833
aF-0.24037016685295254
aF-0.8303532785987027
aF0.13732894904744297
aF-0.1770487310040212
aa(lp124
F-0.01304809573549881
aF-0.6810512715048451
aF-0.9950628765569187
aF0.6047675650164499
aF-0.7754392951802578
aF0.015403665258605814
aF0.8045116126066232
aF0.639044915879541
aa(lp125
F-0.9805890822491632
aF-0.4789387376118224
aF-0.995339542773479
aF0.28468115360952173
aF0.6166556793710403
aF0.7820173449497301
aF0.1488602890234927
aF0.09688205305469633
aa(lp126
F-0.15360373652427883
aF0.10616468502497489
aF0.6000519363248464
aF-0.3091545717267381
aF0.8428362953285424
aF-0.5090931525248517
aF-0.9803566375049635
aF-0.670106011452754
aa(lp127
F-0.6432993835732888
aF-0.5664544817751056
aF0.8045893686629169
aF-0.917372111196836
aF-0.5241879327134655
aF0.38846307811107383
aF0.2527349615997596
aF0.6792961622190683
aa(lp128
F0.5928569821404319
aF-0.24127769960360412
aF-0.30320432797394115
aF-0.5792592072563705
aF0.8448487527930086
aF-0.06179236587704051
aF0.4675620723780711
aF0.3663884359082952
aaa(lp129
(lp130
F0.10994280535133649
aF0.5078504333844303
aF0.8936309731025778
aF0.060940769394108196
aF-0.8782753597165371
aF-0.42007511770713246
aF0.8905828519168282
aF-0.2412743605311911
aF-0.8328527931406884
aF0.13849880260173908
aF-0.4511124642868325
aF0.055139934516692746
aF-0.45489627815601485
aa(lp131
F-0.8730724277978015
aF0.25687594627233756
aF0.25534404522737986
aF0.6329785152703638
aF-0.34879856860438885
aF0.22903192516545956
aF0.03539590056493269
aF-0.7060089724194052
aF0.4809041154975182
aF-0.3740197606663338
aF0.2939252485675776
aF0.26319390471794435
aF0.7841875698877188
aa(lp132
F-0.5692116829963334
aF0.8724363925820395
aF-0.5330301935941033
aF-0.09483156115247504
aF-0.6456858347106067
aF0.037508811562674715
aF0.39453912881839903
aF0.7637321152623777
aF-0.5292519400795241
aF-0.9308341258368991
aF-0.20357368832354328
aF-0.4841383055018673
aF0.18512140595868876
aa(lp133
F-0.9691465374236532
aF0.04967973217169086
aF0.8572927072271865
aF-0.22919459251474694
aF-0.3766131286731347
aF-0.2810027348858457
aF-0.4021754248460252
aF0.2818505705122929
aF0.4050699953647303
aF0.7916473244851248
aF-0.4768755363851176
aF-0.46759779500457266
aF0.8582587498812917
aa(lp134
F-0.8995621052126537
aF-0.8236123113655838
aF-0.5624786747391723
aF0.81164087871336
aF-0.9539831003117751
aF0.4707759232670119
aF0.04621420647013608
aF0.8974698326893094
aF0.11134210094430741
aF-0.2452068096359814
aF0.6625002571609191
aF0.32927100210785465
aF0.16845294346114503
aa(lp135
F0.47342235686106937
aF0.8296760050245493
aF0.7285196577302315
aF-0.665257207943956
aF0.667462539517311
aF0.40728477333695356
aF0.6372189282420107
aF-0.8161517248936834
aF-0.21338783915260917
aF-0.21625900927533115
aF0.6186839134100852
aF-0.37183758115135057
aF0.7730167837889079
aa(lp136
F0.10802993683182338
aF-0.5187097922787252
aF-0.6637931312695835
aF-0.025189797386344415
aF0.1407836360507504
aF-0.08471080250642316
aF-0.9902112258186355
aF-0.7346418601254681
aF0.01842759462638588
aF-0.7880042759649213
aF-0.09862532554230818
aF0.2514925595752191
aF-0.8877867472152303
aa(lp137
F-0.9124849877065493
aF-0.2598375003053033
aF0.8764354222334421
aF-0.7934292076813259
aF0.5162456103382731
aF-0.32480388835074225
aF-0.4501563514785427
aF-0.47711729198105024
aF0.34455610147947535
aF0.6841185567556713
aF-0.8760792482028488
aF-0.9537623600814531
aF-0.6508619977786434
aaa(lp138
(lp139
F0.47351573365880784
aF-0.5127510832619047
aF-0.822624469742995
aF0.03427776516280412
aa(lp140
F-0.48258651372609496
aF-0.11719654808476854
aF0.6863318077009586
aF-0.246278768053791
aa(lp141
F0.5781062615147166
aF-0.8386911675172857
aF-0.8899153164229274
aF0.28948717819698433
aa(lp142
F0.024357270098469774
aF-0.2746405646167456
aF-0.6895249036436881
aF-0.22973737725118193
aa(lp143
F0.6671577076507251
aF0.34600454049070906
aF0.691244767952679
aF-0.27279908453712465
aa(lp144
F0.8099587007257694
aF-0.37819283660969916
aF-0.436488762465415
aF0.6932559317348528
aa(lp145
F-0.3350296949370053
aF0.5427116639419007
aF-0.6474924563061994
aF0.19628310858995723
aa(lp146
F0.22824964433036832
aF0.6320304982757581
aF-0.7655455985076818
aF0.5607651327765824
aa(lp147
F0.340830936374408
aF-0.8523477670709181
aF-0.5485524428588675
aF-0.8084818708865988
aa(lp148
F0.6848557865590603
aF0.3929883726401495
aF0.8461969852794635
aF0.9113759782561361
aa(lp149
F0.41915347087342947
aF-0.2365114695424695
aF-0.28777098297977677
aF-0.3317925722493664
aa(lp150
F-0.330491227897167
aF-0.5570691682237476
aF-0.5753396581556931
aF-0.29092339630318476
aa(lp151
F0.47817019914811687
aF0.774733961978519
aF0.23426910895138597
aF-0.7313311189058165
aaasg69
(lp152
(lp153
F-0.1516162772870142
aF0.3117784728331854
aF-0.8672188422394753
aF0.22800042569868717
aF0.9930878919616419
aF0.8572293323755669
aF0.6714351534608469
aF-0.6765155222786761
aF0.42716354678130286
aF0.41469388178516486
aF-0.6965249144987564
aF0.5930930105407548
aF0.9095635501941877
aa(lp154
F-0.7819231778153886
aF0.7827379163019905
aF-0.7422480512571423
aF0.5464068848571593
aF0.6766351650873765
aF-0.20592196481783964
aF0.9161921584522077
aF0.08419974771245053
aa(lp155
F-0.7078264354834349
aF0.9306286454889341
aF0.8773048020160459
aF0.8521281950185009
aF-0.15665483159723315
aF-0.9994997788407189
aF0.8514826719186217
aF-0.8437223903361806
aF-0.21340319365327032
aF-0.2741701703555415
aF-0.09604605915163122
aF-0.3248717254957918
aF-0.6122663963150239
aa(lp156
F0.2525477625568415
aF-0.320430517635667
aF-0.12504455463582587
aF-0.4499216907518446
aasg75
g76
(g80
S'~\x197&\xf3<Q\xc0'
p157
tp158
Rp159
sba(i__main__
NeuralNet
p160
(dp161
g3
(lp162
I24
aI13
aI8
aI13
aI4
asg5
(lp163
(lp164
(lp165
F0.4615550018726913
aF0.7781132322241624
aF-0.925350596839795
aF-0.20562052161526156
aF-0.5468184984696418
aF-0.7803186282392227
aF-0.6786466187084581
aF0.7107202574804927
aF-0.8949392447047333
aF0.048478695746966505
aF-0.8032537463369565
aF0.08554284715982052
aF0.7732285409428687
aa(lp166
F0.15864547622139935
aF0.974653311945417
aF0.4021045677905297
aF0.07137864085357148
aF-0.22008777785284783
aF-0.8401173836480218
aF-0.41358526037413434
aF0.3421580820313732
aF0.6061265892861492
aF-0.564551413802618
aF-0.7186279347295275
aF-0.9525904513556538
aF-0.7378687720853176
aa(lp167
F-0.4904135669119456
aF0.7356824747325554
aF0.980831492264608
aF-0.5854354116301774
aF-0.6758443195960744
aF0.6855107442577806
aF0.1933262830746676
aF0.760963648918465
aF-0.7993549103556559
aF0.6103339076208296
aF-0.43874011181996075
aF-0.20050032574449594
aF0.49781560282304116
aa(lp168
F-0.45144879395892223
aF0.8989007221289105
aF0.34326120545580197
aF-0.7270019752109531
aF0.43411514916306815
aF0.16305658654251354
aF-0.2350473386963452
aF0.6678277602552329
aF-0.6852136387245791
aF-0.09427866048504208
aF-0.6772304862556033
aF0.38270897917925595
aF-0.9988144547549402
aa(lp169
F-0.21516346369931827
aF0.06862943066025484
aF0.30541705011149367
aF0.45138301964042427
aF-0.45881637815199117
aF0.2583799045791286
aF0.6991415066477167
aF0.8858769334967054
aF0.6933592070748207
aF0.5287475303377389
aF0.618075343509225
aF0.8615103686362737
aF-0.7038568952492832
aa(lp170
F-0.4374849905623619
aF-0.776256510006136
aF-0.9380337473390716
aF0.8114920294010377
aF0.4408893481646108
aF-0.7795161910243256
aF-0.4609546527140622
aF0.3948893513550842
aF-0.3570462909798475
aF-0.11403974835041897
aF0.658628162778037
aF0.6010385314827917
aF-0.28437546688465876
aa(lp171
F-0.4308769440701594
aF0.14791519950440568
aF0.7238244769934679
aF0.4042055948532304
aF0.7211596536827982
aF0.5041792218427497
aF-0.9441601147422845
aF-0.7190952569809397
aF0.4008362002147663
aF0.34634665209032334
aF0.7011328054030694
aF-0.6400342619954993
aF-0.48449710014787706
aa(lp172
F0.6550387358077574
aF-0.26695954787241627
aF-0.14426372790930442
aF0.5843445293909673
aF-0.7726520777650021
aF0.5005418579941303
aF-0.020932814000896638
aF0.7535359540275803
aF-0.8102734320962273
aF-0.5825095376688352
aF-0.44199208927358136
aF0.027319438949583885
aF-0.14310908310228587
aa(lp173
F0.39988914384206775
aF-0.9936084207998608
aF0.08549951577262971
aF-0.15537789823300185
aF-0.8989584203568683
aF0.5144795191753639
aF0.7339007278171144
aF0.414148079980726
aF0.45208266601647273
aF-0.4432200068526655
aF-0.874677012251236
aF0.8377985035235942
aF0.44843487572065266
aa(lp174
F-0.26777474724398687
aF0.7637025499732499
aF0.6885575044091343
aF0.06831190195854431
aF0.6106548239907919
aF0.3735912459998636
aF0.008806052181757673
aF0.33790850209756873
aF-0.1982455408177466
aF-0.254346429688451
aF0.7891146702762626
aF0.9945181839109205
aF0.9173231015194985
aa(lp175
F0.5833663507045244
aF0.5606422198734164
aF0.3450988534010755
aF-0.8609481028443124
aF0.3131277884135295
aF0.6403084171417697
aF0.07786624215651128
aF-0.18902388503426204
aF-0.858774538702314
aF0.7730138922174175
aF0.5463069854948766
aF0.6505762279318814
aF-0.9371263736025279
aa(lp176
F-0.6179914466545742
aF-0.5702340282929967
aF-0.6263987158115463
aF-0.5491259042518106
aF-0.4640640544929231
aF0.11168735423337028
aF0.14695285940094016
aF-0.9446942545429213
aF0.2228132193356276
aF0.4383054900591514
aF0.3637852090971594
aF-0.4538067192786537
aF-0.6930289017734499
aa(lp177
F0.9272194629695316
aF0.7473378271553315
aF-0.9750544627219435
aF-0.8287625366041398
aF-0.6088711245251341
aF0.9962714091332567
aF-0.6019590830605892
aF0.3988484221305113
aF-0.17892266991566008
aF-0.6088027759008321
aF0.08251756613557992
aF0.07681102672999018
aF0.048218456859765224
aa(lp178
F-0.8619297195007627
aF0.5463262261219735
aF-0.1988301365793348
aF-0.23881798414797317
aF0.13198097581965929
aF0.8916284703992847
aF-0.2600022108793001
aF-0.3993728874990037
aF0.23164455885695112
aF-0.8488301772396702
aF-0.819808740267278
aF0.017149251791797937
aF-0.10542725048483947
aa(lp179
F0.44011203499409435
aF0.25208140719240824
aF-0.9923109023172065
aF-0.6446200196663026
aF-0.34650026451343696
aF0.26955238055618835
aF-0.7881452313783919
aF0.8721296008596344
aF0.944331440797318
aF0.6700483852826928
aF0.7574623353858982
aF-0.9958057624242227
aF0.525521024965873
aa(lp180
F0.10531119829774815
aF-0.6083369100493035
aF-0.18830857660062628
aF0.8256205139986166
aF0.6591511444179385
aF-0.03233492415416239
aF-0.9551829850650062
aF0.3152743313697486
aF0.48335728059306926
aF0.9848907801008346
aF0.16506296258750708
aF-0.5797990398185726
aF-0.05821289368743754
aa(lp181
F-0.6559917899514458
aF-0.3103543415725585
aF-0.9622552152299957
aF-0.6560165973971117
aF-0.025855802565505792
aF0.9206169390806567
aF0.12612386058698233
aF0.8594561502764821
aF-0.5171625692439676
aF-0.19045911478167343
aF0.9183071318344063
aF-0.2338741131363573
aF-0.2473500191037532
aa(lp182
F0.9779804466270776
aF-0.5615426243644297
aF-0.7250237268488267
aF0.18965459468500523
aF-0.2217695735695575
aF0.5187632010915999
aF0.3612867238018025
aF0.7766730439476606
aF-0.02309639077700565
aF-0.460809531096686
aF0.10104999228874068
aF-0.40930545056492584
aF-0.04500831312408704
aa(lp183
F0.026078258634925966
aF-0.15488605362042063
aF-0.6457373914005244
aF0.44815972868371157
aF0.11028063709493985
aF-0.7776388803402547
aF-0.8866416503463781
aF-0.2664731802783449
aF-0.7262061357111329
aF-0.19577171929674542
aF0.49763545031008594
aF-0.5751965007676276
aF-0.05507130837788199
aa(lp184
F-0.6823718210320204
aF-0.8949155523453185
aF-0.5269474096884201
aF0.9362661825028811
aF-0.15256904769605995
aF0.39061435715011794
aF0.3812875138697518
aF0.4603622682819182
aF-0.4799925293889369
aF-0.5831922290312301
aF0.8751058943081071
aF0.305725127057501
aF0.12962727011593178
aa(lp185
F0.17676246953192476
aF0.20401085037549138
aF-0.8849427123154621
aF0.982857646814228
aF-0.701349888949967
aF0.40313840179865035
aF0.38901483220329647
aF-0.865905854570056
aF0.7003654420294201
aF-0.4950870495785964
aF-0.8482749714296147
aF0.7211119365586343
aF-0.3338369292233121
aa(lp186
F0.7340458591172927
aF0.6913068485402649
aF0.5687808863791635
aF-0.3392718787903042
aF0.19865382903666906
aF0.14268747316929686
aF-0.46015043479286377
aF-0.4022797942157246
aF-0.5856632328232587
aF-0.17387607426616425
aF-0.8999603443722388
aF-0.5378864090660969
aF-0.49572707022217166
aa(lp187
F-0.8177165411415244
aF-0.8838527223196677
aF-0.40387081763092936
aF-0.9646515210103968
aF0.0057287515084840646
aF0.9346998531224513
aF-0.27991722764007876
aF-0.6333991143584354
aF-0.23944712686836023
aF0.5512962700228816
aF-0.7091380066688446
aF-0.2319945865947015
aF0.9311711431576737
aa(lp188
F0.7762478807652373
aF-0.7257507574495388
aF0.6997090787725124
aF0.20889318103327859
aF0.46474499721032125
aF-0.3599555249293085
aF-0.9717268859200587
aF0.03154888309830084
aF-0.5627599920901283
aF-0.22523517523475345
aF-0.9600662452752229
aF0.3353677388267833
aF-0.06634699429930602
aaa(lp189
(lp190
F0.5391517810150812
aF0.24348264281949517
aF-0.17948668672213364
aF0.6517817919361186
aF-0.10558953012117533
aF0.687200140578913
aF0.8778582245979047
aF0.044187101296707
aa(lp191
F-0.08541098976267092
aF-0.5037933673168697
aF0.17723938007048878
aF0.4873661923357553
aF-0.985139021228014
aF-0.7499752325546798
aF-0.9912248609249903
aF-0.3516320842849283
aa(lp192
F-0.6248030972278997
aF-0.520772455905909
aF-0.6025302175129754
aF0.5274141693916712
aF-0.08539039810698457
aF-0.14524781320035207
aF0.7654103896352815
aF-0.7528420452343676
aa(lp193
F-0.3961105696013201
aF-0.9865284960523759
aF0.319023900684988
aF-0.5176243015208095
aF-0.9467212152853606
aF-0.49256304580315136
aF-0.3931263508397611
aF0.11073792253929415
aa(lp194
F0.6252028471524376
aF0.22840259245159
aF0.3192065124077008
aF-0.4113708770715818
aF-0.4871642106381078
aF0.9894206591821082
aF0.6123405700959248
aF-0.6431845417585722
aa(lp195
F-0.5809731626030266
aF0.8845017177679528
aF0.5114930538984079
aF0.36791961415163077
aF-0.1639572432332974
aF0.691776138435781
aF0.6583969550820765
aF-0.8557961098026443
aa(lp196
F-0.5138132799685204
aF-0.5258646942928826
aF0.9418220992687283
aF-0.9045769053090764
aF0.19774632620458665
aF-0.6428228050578642
aF-0.7042503568202738
aF0.9349699048132412
aa(lp197
F-0.3273983396194595
aF-0.9148134556679033
aF-0.1034884134098355
aF0.7609779469172833
aF-0.24037016685295254
aF-0.8303532785987027
aF0.13732894904744297
aF-0.1770487310040212
aa(lp198
F-0.01304809573549881
aF-0.6810512715048451
aF-0.9950628765569187
aF0.6047675650164499
aF-0.7754392951802578
aF0.015403665258605814
aF0.8045116126066232
aF0.639044915879541
aa(lp199
F-0.9805890822491632
aF-0.4789387376118224
aF-0.995339542773479
aF0.28468115360952173
aF0.6166556793710403
aF0.7820173449497301
aF0.1488602890234927
aF0.09688205305469633
aa(lp200
F-0.15360373652427883
aF0.10616468502497489
aF0.6000519363248464
aF-0.3091545717267381
aF0.8428362953285424
aF-0.5090931525248517
aF-0.9803566375049635
aF-0.670106011452754
aa(lp201
F-0.6432993835732888
aF-0.5664544817751056
aF0.8045893686629169
aF-0.917372111196836
aF-0.5241879327134655
aF0.38846307811107383
aF0.2527349615997596
aF0.6792961622190683
aa(lp202
F0.5928569821404319
aF-0.24127769960360412
aF-0.30320432797394115
aF-0.5792592072563705
aF0.8448487527930086
aF-0.06179236587704051
aF0.4675620723780711
aF0.3663884359082952
aaa(lp203
(lp204
F0.10994280535133649
aF0.5078504333844303
aF0.8936309731025778
aF0.060940769394108196
aF-0.8782753597165371
aF-0.42007511770713246
aF0.8905828519168282
aF-0.2412743605311911
aF-0.8328527931406884
aF0.13849880260173908
aF-0.4511124642868325
aF0.055139934516692746
aF-0.45489627815601485
aa(lp205
F-0.8730724277978015
aF0.25687594627233756
aF0.25534404522737986
aF0.6329785152703638
aF-0.34879856860438885
aF0.22903192516545956
aF0.03539590056493269
aF-0.7060089724194052
aF0.4809041154975182
aF-0.3740197606663338
aF0.2939252485675776
aF0.26319390471794435
aF0.7841875698877188
aa(lp206
F-0.5692116829963334
aF0.8724363925820395
aF-0.5330301935941033
aF-0.09483156115247504
aF-0.6456858347106067
aF0.037508811562674715
aF0.39453912881839903
aF0.7637321152623777
aF-0.5292519400795241
aF-0.9308341258368991
aF-0.20357368832354328
aF-0.4841383055018673
aF0.18512140595868876
aa(lp207
F-0.9691465374236532
aF0.04967973217169086
aF0.8572927072271865
aF-0.22919459251474694
aF-0.3766131286731347
aF-0.2810027348858457
aF-0.4021754248460252
aF0.2818505705122929
aF0.4050699953647303
aF0.7916473244851248
aF-0.4768755363851176
aF-0.46759779500457266
aF0.8582587498812917
aa(lp208
F-0.8995621052126537
aF-0.8236123113655838
aF-0.5624786747391723
aF0.81164087871336
aF-0.9539831003117751
aF0.4707759232670119
aF0.04621420647013608
aF0.8974698326893094
aF0.11134210094430741
aF-0.2452068096359814
aF0.6625002571609191
aF0.32927100210785465
aF0.16845294346114503
aa(lp209
F0.47342235686106937
aF0.8296760050245493
aF0.7285196577302315
aF-0.665257207943956
aF0.667462539517311
aF0.40728477333695356
aF0.6372189282420107
aF-0.8161517248936834
aF-0.21338783915260917
aF-0.21625900927533115
aF0.6186839134100852
aF-0.37183758115135057
aF0.7730167837889079
aa(lp210
F0.10802993683182338
aF-0.5187097922787252
aF-0.6637931312695835
aF-0.025189797386344415
aF0.1407836360507504
aF-0.08471080250642316
aF-0.9902112258186355
aF-0.7346418601254681
aF0.01842759462638588
aF-0.7880042759649213
aF-0.09862532554230818
aF0.2514925595752191
aF-0.8877867472152303
aa(lp211
F-0.9124849877065493
aF-0.2598375003053033
aF0.8764354222334421
aF-0.7934292076813259
aF0.5162456103382731
aF-0.32480388835074225
aF-0.4501563514785427
aF-0.47711729198105024
aF0.34455610147947535
aF0.6841185567556713
aF-0.8760792482028488
aF-0.9537623600814531
aF-0.6508619977786434
aaa(lp212
(lp213
F0.47351573365880784
aF-0.5127510832619047
aF-0.822624469742995
aF0.03427776516280412
aa(lp214
F-0.48258651372609496
aF-0.11719654808476854
aF0.6863318077009586
aF-0.246278768053791
aa(lp215
F0.5781062615147166
aF-0.8386911675172857
aF-0.8899153164229274
aF0.28948717819698433
aa(lp216
F0.024357270098469774
aF-0.2746405646167456
aF-0.6895249036436881
aF-0.22973737725118193
aa(lp217
F0.6671577076507251
aF0.34600454049070906
aF0.691244767952679
aF-0.27279908453712465
aa(lp218
F0.8099587007257694
aF-0.37819283660969916
aF-0.436488762465415
aF0.6932559317348528
aa(lp219
F-0.3350296949370053
aF0.5427116639419007
aF-0.6474924563061994
aF0.19628310858995723
aa(lp220
F0.22824964433036832
aF0.6320304982757581
aF-0.7655455985076818
aF0.5607651327765824
aa(lp221
F0.340830936374408
aF-0.8523477670709181
aF-0.5485524428588675
aF-0.8084818708865988
aa(lp222
F0.6848557865590603
aF0.3929883726401495
aF0.8461969852794635
aF0.9113759782561361
aa(lp223
F0.41915347087342947
aF-0.2365114695424695
aF-0.28777098297977677
aF-0.3317925722493664
aa(lp224
F-0.330491227897167
aF-0.5570691682237476
aF-0.5753396581556931
aF-0.29092339630318476
aa(lp225
F0.47817019914811687
aF0.774733961978519
aF0.23426910895138597
aF-0.7313311189058165
aaasg69
(lp226
(lp227
F-0.1516162772870142
aF0.3117784728331854
aF-0.8672188422394753
aF0.22800042569868717
aF0.9930878919616419
aF0.8572293323755669
aF0.6714351534608469
aF-0.6765155222786761
aF0.42716354678130286
aF0.41469388178516486
aF-0.6965249144987564
aF0.5930930105407548
aF0.9095635501941877
aa(lp228
F-0.7819231778153886
aF0.7827379163019905
aF-0.7422480512571423
aF0.5464068848571593
aF0.6766351650873765
aF-0.20592196481783964
aF0.9161921584522077
aF0.08419974771245053
aa(lp229
F-0.7078264354834349
aF0.9306286454889341
aF0.8773048020160459
aF0.8521281950185009
aF-0.15665483159723315
aF-0.9994997788407189
aF0.8514826719186217
aF-0.8437223903361806
aF-0.21340319365327032
aF-0.2741701703555415
aF-0.09604605915163122
aF-0.3248717254957918
aF-0.6122663963150239
aa(lp230
F0.2525477625568415
aF-0.320430517635667
aF-0.12504455463582587
aF-0.4499216907518446
aasg75
g76
(g80
S'~\xc5\x95z\x0e\xaeS\xc0'
p231
tp232
Rp233
sba(i__main__
NeuralNet
p234
(dp235
g3
(lp236
I24
aI13
aI8
aI13
aI4
asg5
(lp237
(lp238
(lp239
F-0.46832057938552873
aF-0.16569584043725127
aF0.08176362956561922
aF-0.6762475947593232
aF0.06201239253612445
aF-0.38926116536114796
aF-0.4909484218031359
aF0.07493113385376149
aF-0.10456287093978034
aF0.45936252664698096
aF-0.6687350793221496
aF0.7851746175660772
aF-0.5200008109951704
aa(lp240
F0.41722997117414273
aF-0.6032039638501216
aF0.678263129165404
aF-0.8763206794118166
aF0.5941247367307627
aF-0.5379930287659986
aF0.9018733476508531
aF0.9795437942901171
aF-0.9576784437909984
aF0.47717918154868433
aF0.7070976179446407
aF0.10422796252100675
aF-0.8145862657238021
aa(lp241
F0.23578605918060558
aF0.744278215317524
aF-0.15023244703727023
aF-0.3294696823138148
aF0.4243053706999824
aF-0.3362850207940631
aF-0.5823011382557142
aF-0.8183902735907087
aF-0.7379181968894062
aF0.49451750305364617
aF-0.26570529079534677
aF0.23502093599412066
aF0.40608555879255226
aa(lp242
F-0.6925886491393116
aF-0.29219701181259206
aF-0.37214942705139475
aF0.9711308185222804
aF0.1322984334003352
aF0.2938008410242543
aF-0.5974810358413876
aF-0.6709281894452435
aF-0.8354872849417192
aF0.44861240373372513
aF0.7920288360500412
aF-0.6847011344368854
aF0.5356551242391594
aa(lp243
F-0.5418651011091693
aF-0.13853836722371704
aF0.9995797653903822
aF0.8448960362699338
aF0.48612100211422704
aF0.8285904179349146
aF-0.23489997317899292
aF0.44502894732076226
aF0.6739527458659447
aF0.3162327429287777
aF0.8579882460355002
aF-0.016578363254077244
aF0.36880356307321294
aa(lp244
F-0.31931097727540636
aF-0.7330390958553845
aF0.8384101003165922
aF-0.2861175882921778
aF-0.9893427230168081
aF0.5488190363431253
aF-0.2334644143233937
aF0.9825291181252891
aF-0.06633611025508213
aF-0.6887993364619185
aF-0.7949606741278539
aF-0.3495686763810124
aF-0.07431705216648421
aa(lp245
F-0.794713603885306
aF0.8005740259528906
aF0.36901098447249225
aF-0.2568574739465572
aF-0.7372850857016404
aF0.7317577651817999
aF-0.9311872298127168
aF0.7872106449254397
aF0.053794722449387544
aF-0.21718117502106904
aF-0.4340537772302946
aF0.46068553412012325
aF-0.44629752189796434
aa(lp246
F0.20353228348562524
aF-0.8389048714286798
aF0.7468011891331581
aF-0.5442360260302426
aF-0.5897346933670613
aF-0.632005681078313
aF0.07276479767329702
aF0.10110725236623663
aF-0.3971223583277226
aF-0.920647839374233
aF-0.4617501747311299
aF0.7406325383273857
aF-0.15715228486445065
aa(lp247
F-0.40799606555373846
aF-0.6863765432361424
aF0.380412221078926
aF-0.05190152493058542
aF0.05444022015183547
aF0.08030641540391215
aF0.7801560005912616
aF-0.5508258882038317
aF0.0008807865429834028
aF-0.9342530589610734
aF0.4428994633541441
aF0.1105046473873339
aF-0.6612513841555259
aa(lp248
F0.12505287477163174
aF0.532054171277583
aF-0.6670633414733582
aF0.6830500086846931
aF0.4113722628941918
aF0.5218589449142892
aF-0.03168205770541754
aF0.8270666503209163
aF0.5868152339553026
aF-0.4233203525475917
aF-0.9630208247800309
aF-0.8733354523251278
aF0.30413735330026004
aa(lp249
F-0.1557985113452649
aF0.5981772539762167
aF-0.9079556828664481
aF0.9364518201467875
aF-0.02137782945716138
aF0.6923919132131637
aF0.05506171538174831
aF0.5878322370712212
aF-0.0802727086180528
aF0.9641207646019243
aF0.7639986568256925
aF-0.36247164278549593
aF-0.7596472139315473
aa(lp250
F0.7033814121270563
aF0.6718054471369168
aF-0.14637161610105953
aF-0.44981967471589046
aF0.7756446420384668
aF-0.6076779302964539
aF-0.44187435039987744
aF-0.4158925547610359
aF0.3028619237471315
aF-0.6734729760719005
aF0.7494516147221841
aF0.23541669051356928
aF-0.11636804657691391
aa(lp251
F-0.16937256264389622
aF-0.22613690113415497
aF0.7497075254673184
aF-0.1802567683178189
aF-0.8301081647185597
aF0.8648494578767669
aF-0.6804833511558239
aF-0.11053099820148815
aF0.9346403657717246
aF0.7875752599674113
aF-0.6418766595417809
aF-0.9033053232612118
aF-0.05379902454841057
aa(lp252
F0.3109185883243655
aF-0.7235143623752254
aF0.9070938107238562
aF0.7802761831591551
aF-0.5963776434550578
aF0.014177671982106288
aF-0.2491634923109196
aF-0.680951297867169
aF-0.5134423351267778
aF-0.7432772789370836
aF0.7554521079300089
aF0.3164755621876765
aF0.6091252534427141
aa(lp253
F-0.33017768661682645
aF-0.3051451128380054
aF-0.3213226905648121
aF-0.25358487286980846
aF0.7537932406896746
aF0.06614330537215807
aF0.8544247958482531
aF-0.44706361802707617
aF0.52805476708389
aF-0.6130545338442464
aF0.8288234668695151
aF0.7118455268365569
aF0.1792011341863926
aa(lp254
F0.10272634457237362
aF-0.47667551074775427
aF-0.8853447909227035
aF-0.9878167808311551
aF-0.9433382234351608
aF-0.031449411694080665
aF0.4030323830983771
aF-0.8428254240417703
aF-0.8885003828446933
aF0.21876506723877354
aF-0.05833736578805504
aF0.6620213662399399
aF-0.3437112865860015
aa(lp255
F0.6051765798969064
aF0.3571419369129736
aF-0.1287371156205941
aF-0.9382717406816103
aF0.15360242984960015
aF-0.2680647170961903
aF-0.3372408005676535
aF-0.17151241359970437
aF0.5093640057789732
aF0.08591263549139838
aF-0.995177485323137
aF0.7198052509830779
aF-0.6832900163244
aa(lp256
F-0.7044747801355091
aF0.8950886677888066
aF0.8869349567395242
aF0.8120878188370066
aF-0.8838623590047336
aF0.46750401224997384
aF-0.5225169683836994
aF0.670584088062764
aF-0.7017553746721139
aF0.7455994716788434
aF0.27985996053526074
aF-0.9154186467528875
aF-0.11483265772924645
aa(lp257
F-0.3381804913045592
aF-0.843377193726031
aF-0.38193862103001375
aF0.9902045251363831
aF-0.5054625268627397
aF-0.5836953984854283
aF-0.07036933012781033
aF-0.31384495718787875
aF-0.20657063177291302
aF0.059185881146164965
aF0.5011210253412928
aF-0.6552003493779426
aF-0.6348189161437006
aa(lp258
F-0.4437681834267768
aF0.8902354781987181
aF-0.37782155350656677
aF0.6031452729082742
aF-0.421575648692299
aF0.978623629879581
aF0.9406706228118291
aF0.16651971627166895
aF0.24447576682999883
aF0.9413332772707799
aF0.45978901775954295
aF-0.8950267056772443
aF0.07748223234947038
aa(lp259
F0.9660712905476418
aF0.9331594797264622
aF0.3652793647797028
aF-0.6077319271708539
aF-0.9167004209064902
aF0.7408655711324188
aF0.15339275909263295
aF0.6814818951441695
aF0.9407274092209037
aF-0.5008362150567847
aF-0.5612146931898447
aF-0.4639399466750853
aF-0.40624426151845294
aa(lp260
F0.8509594706904835
aF0.07963886823143618
aF0.41051683215044843
aF0.07103705873867305
aF-0.38424227281303236
aF0.05124306843455795
aF0.17276517731247898
aF-0.4357627890371829
aF-0.08279376825851559
aF-0.9149633754546389
aF0.6386246730980594
aF-0.31425579550039373
aF-0.9898576556250922
aa(lp261
F-0.10510372205152163
aF-0.6711941591407988
aF0.6609027641895222
aF0.5410762768928636
aF-0.17061255713821
aF0.1038199048293309
aF-0.17859002849801375
aF0.738887553508945
aF-0.7545133088721447
aF0.9952781550246548
aF-0.7521255883557891
aF-0.19088371099708512
aF-0.9634492295577277
aa(lp262
F0.47786022429421204
aF-0.8639686157401087
aF0.49668143962938793
aF-0.22431534219530103
aF0.08153626377415746
aF-0.07859364654879153
aF-0.9939515351585704
aF-0.6538828743319132
aF0.8836308757652098
aF0.05519622524837797
aF-0.19425687768295652
aF0.16301482408734325
aF0.03576307701941972
aaa(lp263
(lp264
F-0.848979475999353
aF-0.1542144717619216
aF0.4621820321606147
aF0.5587929416910569
aF-0.4361734325486324
aF0.8322057383417787
aF-0.40995690775745985
aF-0.5238295768928043
aa(lp265
F0.585150100514072
aF-0.05452530010077239
aF-0.7588780691659822
aF0.9463534157757187
aF0.29960513842270964
aF0.4552322183380375
aF0.36948944900675396
aF-0.21379966733135558
aa(lp266
F-0.5288105159733358
aF0.2080071514996793
aF-0.6044094408535061
aF0.8220860498935367
aF-0.9424013011966856
aF0.9818309615255307
aF-0.9851060040172002
aF-0.8128363561365852
aa(lp267
F0.003623139118844154
aF-0.24387304500018137
aF0.8408457701461376
aF-0.0013596918738651986
aF0.7423498473792678
aF-0.680336263431607
aF-0.3197644014860923
aF0.6216495231345092
aa(lp268
F-0.6043935089774588
aF0.16420669038773705
aF-0.05790490465716025
aF0.5076241098747405
aF0.36882612585560115
aF0.16555154775000225
aF-0.3683888643686799
aF-0.3512927325418782
aa(lp269
F0.8312273057633404
aF0.3891056280687817
aF0.6846626242239535
aF0.40926940892694064
aF-0.5252434758331266
aF0.13348041253956677
aF-0.08050997360513046
aF0.5136622637296897
aa(lp270
F-0.5524987488321857
aF-0.34545517783412016
aF-0.5724368881366007
aF0.45068188577428514
aF0.12815554534320772
aF0.6482893511257712
aF0.6792509048848818
aF-0.10972093507434333
aa(lp271
F-0.045283119044314146
aF-0.2849963222168246
aF0.1483486631190709
aF-0.5316811292909687
aF-0.5585291251900792
aF0.3171152521116698
aF-0.7423488148512263
aF-0.045814718023482026
aa(lp272
F-0.5425798998206905
aF0.8434357297743609
aF-0.25515814517878144
aF-0.04080364134512515
aF-0.6110663164835559
aF0.08998540523525955
aF-0.5465604455388691
aF-0.5876449938561932
aa(lp273
F0.008101505278248933
aF0.28095006241382725
aF-0.44413326724272384
aF-0.7207670691717663
aF0.7742801456010155
aF0.37341236445478554
aF0.8123808304051401
aF0.36244111993892814
aa(lp274
F0.35801535468873924
aF-0.4737540896736998
aF-0.671328799100043
aF-0.5861897292595626
aF-0.6742401044542061
aF-0.9508611621976031
aF0.893103683780845
aF0.1571557239450707
aa(lp275
F0.8280358974530511
aF-0.9949598909272315
aF-0.8344215448385466
aF0.7818277879745141
aF0.7704359591492056
aF0.4425199590411051
aF0.7830411655217315
aF-0.19645611969239996
aa(lp276
F-0.16449326873626924
aF-0.6276707588241739
aF0.24984142736451842
aF-0.11912535279981862
aF-0.08909110608332638
aF-0.8290927891756075
aF-0.10486411595466083
aF-0.9021482841750426
aaa(lp277
(lp278
F0.05256364246744338
aF0.9839547466159133
aF0.2960196248260101
aF0.6693886182836262
aF0.28293821451047085
aF-0.3301742644004386
aF-0.5844978775173229
aF0.5624142403040682
aF0.0024579819558605553
aF0.17421151260718348
aF0.4646066126850541
aF-0.7523990746611022
aF0.8618800923705352
aa(lp279
F-0.8954821702057258
aF-0.007240566511211632
aF-0.7368564737897147
aF-0.08013589574233393
aF-0.13196271220959632
aF-0.5230587028835083
aF-0.804191455867185
aF0.8034535218580363
aF0.7886447270242294
aF-0.05679026318843938
aF-0.5637011999586836
aF0.7862633392356195
aF-0.5485100006029824
aa(lp280
F-0.47037108619098755
aF-0.3044773691196927
aF0.036040688967689194
aF0.9431848636141302
aF0.8922808877912474
aF-0.7774565052607487
aF0.8006362994752438
aF-0.9492293905790379
aF-0.6069753063451557
aF-0.08396022712072759
aF0.08184002107046706
aF0.11735164641491469
aF0.5870325232240248
aa(lp281
F0.5141511349050765
aF0.6737631732866871
aF0.09214003305046603
aF0.983615158302416
aF0.7333862767685548
aF0.890641771122002
aF0.29472025386132006
aF0.044294945662929575
aF-0.03263134332896622
aF-0.40727283363143685
aF0.5467392586352999
aF0.38325684298189966
aF-0.8399787428942469
aa(lp282
F0.3968637600196854
aF0.40900046871236406
aF0.553205139248645
aF-0.3891107694057583
aF-0.0080856664748159
aF-0.6014948460311176
aF0.7610399859338959
aF0.15346964034357824
aF0.2500898093282571
aF-0.2737348236719932
aF-0.7719133671636611
aF-0.06153402540197117
aF0.7535697322896107
aa(lp283
F0.42208483358026383
aF-0.7601226724242902
aF-0.26521441242851473
aF0.978128159654551
aF0.2809630036126043
aF0.4481808062350432
aF-0.22601190204517696
aF0.008163201731036906
aF0.11764665407491326
aF-0.736756013227509
aF0.35480079630001704
aF-0.7742088342570552
aF0.4725041115809363
aa(lp284
F-0.4782880861286445
aF0.0293310906903943
aF-0.9836718908034459
aF-0.37032715130011185
aF-0.9236118542494269
aF-0.7819569777615367
aF0.3213483416084786
aF-0.4727218607137724
aF-0.16060957674638643
aF0.08870465248000459
aF-0.7552382348403912
aF-0.7525606326634129
aF0.023458099613953065
aa(lp285
F0.8007497583023335
aF-0.4737436786167726
aF0.006268826817016349
aF-0.8914270148134129
aF0.961490042895931
aF-0.4905292737462339
aF0.3892431130656582
aF0.43053835730797885
aF0.38448067983380985
aF0.7215849741009419
aF-0.6978603647033819
aF0.7420096116096047
aF-0.5613700885423034
aaa(lp286
(lp287
F-0.03659297634750169
aF0.918642115543163
aF-0.5700406918201424
aF-0.900966833291089
aa(lp288
F-0.04557006866150992
aF-0.04889357062805222
aF0.4173215774328958
aF-0.20284799707307766
aa(lp289
F0.9499684324035367
aF0.007428936660194951
aF0.9864348151817928
aF-0.13652928841028578
aa(lp290
F-0.7051557390485717
aF-0.03935067045940088
aF-0.1694636606180564
aF-0.6268456583108428
aa(lp291
F-0.5001777535919822
aF0.8623161339235625
aF0.631090135436561
aF-0.17150530476548553
aa(lp292
F-0.4717471768977357
aF-0.2020185268824679
aF0.5861594443570188
aF0.7766102793308207
aa(lp293
F-0.2299920181362718
aF-0.3877297914594131
aF0.45298962171731083
aF-0.747087847379819
aa(lp294
F-0.7264115301874328
aF-0.3267008395489932
aF0.45207511804909295
aF0.4634736245792639
aa(lp295
F0.8238183700009676
aF-0.04265509551749758
aF0.2907079163392561
aF-0.18301240324297496
aa(lp296
F-0.9845231209607377
aF-0.6164811747229406
aF0.19928740802848055
aF-0.8954052496277867
aa(lp297
F0.7993561174826624
aF-0.09426171962892682
aF0.8276475452192413
aF0.015448496273501089
aa(lp298
F-0.7139422068203649
aF0.4000628948070224
aF0.3636665992350807
aF-0.7544868294808966
aa(lp299
F-0.5732457648927816
aF-0.3165891557786795
aF-0.9963266476404691
aF-0.019511161792801657
aaasg69
(lp300
(lp301
F-0.2106941041921877
aF-0.44220893664862326
aF0.5124550082309236
aF-0.9443723670004893
aF-0.9203372559598881
aF0.11527440981581849
aF0.31044115613339884
aF0.39193213853072795
aF0.9928593690338825
aF0.29131063158132275
aF-0.06957459894447648
aF0.6332590590771161
aF0.676570733665834
aa(lp302
F0.4371829343214353
aF-0.4500160380542191
aF0.6966505424969056
aF-0.8316186295617938
aF-0.9955007840132484
aF0.8032394193892387
aF-0.1189337411328959
aF-0.3016976180808315
aa(lp303
F-0.6003948026172399
aF-0.7884826293418068
aF-0.9433338609143507
aF0.8551696456988758
aF0.6372469839398904
aF0.8719991699969676
aF-0.7773348852953061
aF-0.464830513808125
aF-0.7656010342831381
aF0.32597917364011564
aF-0.9051868167482522
aF-0.25093951361732914
aF0.2178160206447557
aa(lp304
F-0.5741852151579776
aF-0.01114408625317087
aF-0.5948755397695613
aF-0.8987741809199901
aasg75
g76
(g80
S'\xdd\xd2\xeb\n\x12\xb1Y\xc0'
p305
tp306
Rp307
sba(i__main__
NeuralNet
p308
(dp309
g3
(lp310
I24
aI13
aI8
aI13
aI4
asg5
(lp311
(lp312
(lp313
F-0.46832057938552873
aF-0.16569584043725127
aF0.08176362956561922
aF-0.6762475947593232
aF0.06201239253612445
aF-0.38926116536114796
aF-0.4909484218031359
aF0.07493113385376149
aF-0.10456287093978034
aF0.45936252664698096
aF-0.6687350793221496
aF0.7851746175660772
aF-0.5200008109951704
aa(lp314
F0.41722997117414273
aF-0.6032039638501216
aF0.678263129165404
aF-0.8763206794118166
aF0.5941247367307627
aF-0.5379930287659986
aF0.9018733476508531
aF0.9795437942901171
aF-0.9576784437909984
aF0.47717918154868433
aF0.7070976179446407
aF0.10422796252100675
aF-0.8145862657238021
aa(lp315
F0.23578605918060558
aF0.744278215317524
aF-0.15023244703727023
aF-0.3294696823138148
aF0.4243053706999824
aF-0.3362850207940631
aF-0.5823011382557142
aF-0.8183902735907087
aF-0.7379181968894062
aF0.49451750305364617
aF-0.26570529079534677
aF0.23502093599412066
aF0.40608555879255226
aa(lp316
F-0.6925886491393116
aF-0.29219701181259206
aF-0.37214942705139475
aF0.9711308185222804
aF0.1322984334003352
aF0.2938008410242543
aF-0.5974810358413876
aF-0.6709281894452435
aF-0.8354872849417192
aF0.44861240373372513
aF0.7920288360500412
aF-0.6847011344368854
aF0.5356551242391594
aa(lp317
F-0.5418651011091693
aF-0.13853836722371704
aF0.9995797653903822
aF0.8448960362699338
aF0.48612100211422704
aF0.8285904179349146
aF-0.23489997317899292
aF0.44502894732076226
aF0.6739527458659447
aF0.3162327429287777
aF0.8579882460355002
aF-0.016578363254077244
aF0.36880356307321294
aa(lp318
F-0.31931097727540636
aF-0.7330390958553845
aF0.8384101003165922
aF-0.2861175882921778
aF-0.9893427230168081
aF0.5488190363431253
aF-0.2334644143233937
aF0.9825291181252891
aF-0.06633611025508213
aF-0.6887993364619185
aF-0.7949606741278539
aF-0.3495686763810124
aF-0.07431705216648421
aa(lp319
F-0.794713603885306
aF0.8005740259528906
aF0.36901098447249225
aF-0.2568574739465572
aF-0.7372850857016404
aF0.7317577651817999
aF-0.9311872298127168
aF0.7872106449254397
aF0.053794722449387544
aF-0.21718117502106904
aF-0.4340537772302946
aF0.46068553412012325
aF-0.44629752189796434
aa(lp320
F0.20353228348562524
aF-0.8389048714286798
aF0.7468011891331581
aF-0.5442360260302426
aF-0.5897346933670613
aF-0.632005681078313
aF0.07276479767329702
aF0.10110725236623663
aF-0.3971223583277226
aF-0.920647839374233
aF-0.4617501747311299
aF0.7406325383273857
aF-0.15715228486445065
aa(lp321
F-0.40799606555373846
aF-0.6863765432361424
aF0.380412221078926
aF-0.05190152493058542
aF0.05444022015183547
aF0.08030641540391215
aF0.7801560005912616
aF-0.5508258882038317
aF0.0008807865429834028
aF-0.9342530589610734
aF0.4428994633541441
aF0.1105046473873339
aF-0.6612513841555259
aa(lp322
F0.12505287477163174
aF0.532054171277583
aF-0.6670633414733582
aF0.6830500086846931
aF0.4113722628941918
aF0.5218589449142892
aF-0.03168205770541754
aF0.8270666503209163
aF0.5868152339553026
aF-0.4233203525475917
aF-0.9630208247800309
aF-0.8733354523251278
aF0.30413735330026004
aa(lp323
F-0.1557985113452649
aF0.5981772539762167
aF-0.9079556828664481
aF0.9364518201467875
aF-0.02137782945716138
aF0.6923919132131637
aF0.05506171538174831
aF0.5878322370712212
aF-0.0802727086180528
aF0.9641207646019243
aF0.7639986568256925
aF-0.36247164278549593
aF-0.7596472139315473
aa(lp324
F0.7033814121270563
aF0.6718054471369168
aF-0.14637161610105953
aF-0.44981967471589046
aF0.7756446420384668
aF-0.6076779302964539
aF-0.44187435039987744
aF-0.4158925547610359
aF0.3028619237471315
aF-0.6734729760719005
aF0.7494516147221841
aF0.23541669051356928
aF-0.11636804657691391
aa(lp325
F-0.16937256264389622
aF-0.22613690113415497
aF0.7497075254673184
aF-0.1802567683178189
aF-0.8301081647185597
aF0.8648494578767669
aF-0.6804833511558239
aF-0.11053099820148815
aF0.9346403657717246
aF0.7875752599674113
aF-0.6418766595417809
aF-0.9033053232612118
aF-0.05379902454841057
aa(lp326
F0.3109185883243655
aF-0.7235143623752254
aF0.9070938107238562
aF0.7802761831591551
aF-0.5963776434550578
aF0.014177671982106288
aF-0.2491634923109196
aF-0.680951297867169
aF-0.5134423351267778
aF-0.7432772789370836
aF0.7554521079300089
aF0.3164755621876765
aF0.6091252534427141
aa(lp327
F-0.33017768661682645
aF-0.3051451128380054
aF-0.3213226905648121
aF-0.25358487286980846
aF0.7537932406896746
aF0.06614330537215807
aF0.8544247958482531
aF-0.44706361802707617
aF0.52805476708389
aF-0.6130545338442464
aF0.8288234668695151
aF0.7118455268365569
aF0.1792011341863926
aa(lp328
F0.10272634457237362
aF-0.47667551074775427
aF-0.8853447909227035
aF-0.9878167808311551
aF-0.9433382234351608
aF-0.031449411694080665
aF0.4030323830983771
aF-0.8428254240417703
aF-0.8885003828446933
aF0.21876506723877354
aF-0.05833736578805504
aF0.6620213662399399
aF-0.3437112865860015
aa(lp329
F0.6051765798969064
aF0.3571419369129736
aF-0.1287371156205941
aF-0.9382717406816103
aF0.15360242984960015
aF-0.2680647170961903
aF-0.3372408005676535
aF-0.17151241359970437
aF0.5093640057789732
aF0.08591263549139838
aF-0.995177485323137
aF0.7198052509830779
aF-0.6832900163244
aa(lp330
F-0.7044747801355091
aF0.8950886677888066
aF0.8869349567395242
aF0.8120878188370066
aF-0.8838623590047336
aF0.46750401224997384
aF-0.5225169683836994
aF0.670584088062764
aF-0.7017553746721139
aF0.7455994716788434
aF0.27985996053526074
aF-0.9154186467528875
aF-0.11483265772924645
aa(lp331
F-0.3381804913045592
aF-0.843377193726031
aF-0.38193862103001375
aF0.9902045251363831
aF-0.5054625268627397
aF-0.5836953984854283
aF-0.07036933012781033
aF-0.31384495718787875
aF-0.20657063177291302
aF0.059185881146164965
aF0.5011210253412928
aF-0.6552003493779426
aF-0.6348189161437006
aa(lp332
F-0.4437681834267768
aF0.8902354781987181
aF-0.37782155350656677
aF0.6031452729082742
aF-0.421575648692299
aF0.978623629879581
aF0.9406706228118291
aF0.16651971627166895
aF0.24447576682999883
aF0.9413332772707799
aF0.45978901775954295
aF-0.8950267056772443
aF0.07748223234947038
aa(lp333
F0.9660712905476418
aF0.9331594797264622
aF0.3652793647797028
aF-0.6077319271708539
aF-0.9167004209064902
aF0.7408655711324188
aF0.15339275909263295
aF0.6814818951441695
aF0.9407274092209037
aF-0.5008362150567847
aF-0.5612146931898447
aF-0.4639399466750853
aF-0.40624426151845294
aa(lp334
F0.8509594706904835
aF0.07963886823143618
aF0.41051683215044843
aF0.07103705873867305
aF-0.38424227281303236
aF0.05124306843455795
aF0.17276517731247898
aF-0.4357627890371829
aF-0.08279376825851559
aF-0.9149633754546389
aF0.6386246730980594
aF-0.31425579550039373
aF-0.9898576556250922
aa(lp335
F-0.10510372205152163
aF-0.6711941591407988
aF0.6609027641895222
aF0.5410762768928636
aF-0.17061255713821
aF0.1038199048293309
aF-0.17859002849801375
aF0.738887553508945
aF-0.7545133088721447
aF0.9952781550246548
aF-0.7521255883557891
aF-0.19088371099708512
aF-0.9634492295577277
aa(lp336
F0.47786022429421204
aF-0.8639686157401087
aF0.49668143962938793
aF-0.22431534219530103
aF0.08153626377415746
aF-0.07859364654879153
aF-0.9939515351585704
aF-0.6538828743319132
aF0.8836308757652098
aF0.05519622524837797
aF-0.19425687768295652
aF0.16301482408734325
aF0.03576307701941972
aaa(lp337
(lp338
F-0.848979475999353
aF-0.1542144717619216
aF0.4621820321606147
aF0.5587929416910569
aF-0.4361734325486324
aF0.8322057383417787
aF-0.40995690775745985
aF-0.5238295768928043
aa(lp339
F0.585150100514072
aF-0.05452530010077239
aF-0.7588780691659822
aF0.9463534157757187
aF0.29960513842270964
aF0.4552322183380375
aF0.36948944900675396
aF-0.21379966733135558
aa(lp340
F-0.5288105159733358
aF0.2080071514996793
aF-0.6044094408535061
aF0.8220860498935367
aF-0.9424013011966856
aF0.9818309615255307
aF-0.9851060040172002
aF-0.8128363561365852
aa(lp341
F0.003623139118844154
aF-0.24387304500018137
aF0.8408457701461376
aF-0.0013596918738651986
aF0.7423498473792678
aF-0.680336263431607
aF-0.3197644014860923
aF0.6216495231345092
aa(lp342
F-0.6043935089774588
aF0.16420669038773705
aF-0.05790490465716025
aF0.5076241098747405
aF0.36882612585560115
aF0.16555154775000225
aF-0.3683888643686799
aF-0.3512927325418782
aa(lp343
F0.8312273057633404
aF0.3891056280687817
aF0.6846626242239535
aF0.40926940892694064
aF-0.5252434758331266
aF0.13348041253956677
aF-0.08050997360513046
aF0.5136622637296897
aa(lp344
F-0.5524987488321857
aF-0.34545517783412016
aF-0.5724368881366007
aF0.45068188577428514
aF0.12815554534320772
aF0.6482893511257712
aF0.6792509048848818
aF-0.10972093507434333
aa(lp345
F-0.045283119044314146
aF-0.2849963222168246
aF0.1483486631190709
aF-0.5316811292909687
aF-0.5585291251900792
aF0.3171152521116698
aF-0.7423488148512263
aF-0.045814718023482026
aa(lp346
F-0.5425798998206905
aF0.8434357297743609
aF-0.25515814517878144
aF-0.04080364134512515
aF-0.6110663164835559
aF0.08998540523525955
aF-0.5465604455388691
aF-0.5876449938561932
aa(lp347
F0.008101505278248933
aF0.28095006241382725
aF-0.44413326724272384
aF-0.7207670691717663
aF0.7742801456010155
aF0.37341236445478554
aF0.8123808304051401
aF0.36244111993892814
aa(lp348
F0.35801535468873924
aF-0.4737540896736998
aF-0.671328799100043
aF-0.5861897292595626
aF-0.6742401044542061
aF-0.9508611621976031
aF0.893103683780845
aF0.1571557239450707
aa(lp349
F0.8280358974530511
aF-0.9949598909272315
aF-0.8344215448385466
aF0.7818277879745141
aF0.7704359591492056
aF0.4425199590411051
aF0.7830411655217315
aF-0.19645611969239996
aa(lp350
F-0.16449326873626924
aF-0.6276707588241739
aF0.24984142736451842
aF-0.11912535279981862
aF-0.08909110608332638
aF-0.8290927891756075
aF-0.10486411595466083
aF-0.9021482841750426
aaa(lp351
(lp352
F0.05256364246744338
aF0.9839547466159133
aF0.2960196248260101
aF0.6693886182836262
aF0.28293821451047085
aF-0.3301742644004386
aF-0.5844978775173229
aF0.5624142403040682
aF0.0024579819558605553
aF0.17421151260718348
aF0.4646066126850541
aF-0.7523990746611022
aF0.8618800923705352
aa(lp353
F-0.8954821702057258
aF-0.007240566511211632
aF-0.7368564737897147
aF-0.08013589574233393
aF-0.13196271220959632
aF-0.5230587028835083
aF-0.804191455867185
aF0.8034535218580363
aF0.7886447270242294
aF-0.05679026318843938
aF-0.5637011999586836
aF0.7862633392356195
aF-0.5485100006029824
aa(lp354
F-0.47037108619098755
aF-0.3044773691196927
aF0.036040688967689194
aF0.9431848636141302
aF0.8922808877912474
aF-0.7774565052607487
aF0.8006362994752438
aF-0.9492293905790379
aF-0.6069753063451557
aF-0.08396022712072759
aF0.08184002107046706
aF0.11735164641491469
aF0.5870325232240248
aa(lp355
F0.5141511349050765
aF0.6737631732866871
aF0.09214003305046603
aF0.983615158302416
aF0.7333862767685548
aF0.890641771122002
aF0.29472025386132006
aF0.044294945662929575
aF-0.03263134332896622
aF-0.40727283363143685
aF0.5467392586352999
aF0.38325684298189966
aF-0.8399787428942469
aa(lp356
F0.3968637600196854
aF0.40900046871236406
aF0.553205139248645
aF-0.3891107694057583
aF-0.0080856664748159
aF-0.6014948460311176
aF0.7610399859338959
aF0.15346964034357824
aF0.2500898093282571
aF-0.2737348236719932
aF-0.7719133671636611
aF-0.06153402540197117
aF0.7535697322896107
aa(lp357
F0.42208483358026383
aF-0.7601226724242902
aF-0.26521441242851473
aF0.978128159654551
aF0.2809630036126043
aF0.4481808062350432
aF-0.22601190204517696
aF0.008163201731036906
aF0.11764665407491326
aF-0.736756013227509
aF0.35480079630001704
aF-0.7742088342570552
aF0.4725041115809363
aa(lp358
F-0.4782880861286445
aF0.0293310906903943
aF-0.9836718908034459
aF-0.37032715130011185
aF-0.9236118542494269
aF-0.7819569777615367
aF0.3213483416084786
aF-0.4727218607137724
aF-0.16060957674638643
aF0.08870465248000459
aF-0.7552382348403912
aF-0.7525606326634129
aF0.023458099613953065
aa(lp359
F0.8007497583023335
aF-0.4737436786167726
aF0.006268826817016349
aF-0.8914270148134129
aF0.961490042895931
aF-0.4905292737462339
aF0.3892431130656582
aF0.43053835730797885
aF0.38448067983380985
aF0.7215849741009419
aF-0.6978603647033819
aF0.7420096116096047
aF-0.5613700885423034
aaa(lp360
(lp361
F-0.03659297634750169
aF0.918642115543163
aF-0.5700406918201424
aF-0.900966833291089
aa(lp362
F-0.04557006866150992
aF-0.04889357062805222
aF0.4173215774328958
aF-0.20284799707307766
aa(lp363
F0.9499684324035367
aF0.007428936660194951
aF0.9864348151817928
aF-0.13652928841028578
aa(lp364
F-0.7051557390485717
aF-0.03935067045940088
aF-0.1694636606180564
aF-0.6268456583108428
aa(lp365
F-0.5001777535919822
aF0.8623161339235625
aF0.631090135436561
aF-0.17150530476548553
aa(lp366
F-0.4717471768977357
aF-0.2020185268824679
aF0.5861594443570188
aF0.7766102793308207
aa(lp367
F-0.2299920181362718
aF-0.3877297914594131
aF0.45298962171731083
aF-0.747087847379819
aa(lp368
F-0.7264115301874328
aF-0.3267008395489932
aF0.45207511804909295
aF0.4634736245792639
aa(lp369
F0.8238183700009676
aF-0.04265509551749758
aF0.2907079163392561
aF-0.18301240324297496
aa(lp370
F-0.9845231209607377
aF-0.6164811747229406
aF0.19928740802848055
aF-0.8954052496277867
aa(lp371
F0.7993561174826624
aF-0.09426171962892682
aF0.8276475452192413
aF0.015448496273501089
aa(lp372
F-0.7139422068203649
aF0.4000628948070224
aF0.3636665992350807
aF-0.7544868294808966
aa(lp373
F-0.5732457648927816
aF-0.3165891557786795
aF-0.9963266476404691
aF-0.019511161792801657
aaasg69
(lp374
(lp375
F-0.2106941041921877
aF-0.44220893664862326
aF0.5124550082309236
aF-0.9443723670004893
aF-0.9203372559598881
aF0.11527440981581849
aF0.31044115613339884
aF0.39193213853072795
aF0.9928593690338825
aF0.29131063158132275
aF-0.06957459894447648
aF0.6332590590771161
aF0.676570733665834
aa(lp376
F0.4371829343214353
aF-0.4500160380542191
aF0.6966505424969056
aF-0.8316186295617938
aF-0.9955007840132484
aF0.8032394193892387
aF-0.1189337411328959
aF-0.3016976180808315
aa(lp377
F-0.6003948026172399
aF-0.7884826293418068
aF-0.9433338609143507
aF0.8551696456988758
aF0.6372469839398904
aF0.8719991699969676
aF-0.7773348852953061
aF-0.464830513808125
aF-0.7656010342831381
aF0.32597917364011564
aF-0.9051868167482522
aF-0.25093951361732914
aF0.2178160206447557
aa(lp378
F-0.5741852151579776
aF-0.01114408625317087
aF-0.5948755397695613
aF-0.8987741809199901
aasg75
g76
(g80
S'?\x11]{\x14jY\xc0'
p379
tp380
Rp381
sba.